; Function Attrs: inlinehint mustprogress uwtable
define internal fastcc noundef nonnull align 8 dereferenceable(8) ptr @_ZN7jsonnet8internallsERSoRKNS0_5TokenE(ptr noundef nonnull returned align 8 dereferenceable(8) %0, ptr noundef nonnull align 8 dereferenceable(192) %1) unnamed_addr #7 {
  %3 = getelementptr inbounds nuw i8, ptr %1, i64 32
  %4 = tail call noundef i32 @_ZNKSt7__cxx1112basic_stringIcSt11char_traitsIcESaIcEE7compareEPKc(ptr noundef nonnull align 8 dereferenceable(32) %3, ptr noundef nonnull @.str.85) #26
  %5 = icmp eq i32 %4, 0
  %6 = load i32, ptr %1, align 8, !tbaa !69
  br i1 %5, label %7, label %20

7:                                                ; preds = %2
  %8 = tail call noundef ptr @_ZN7jsonnet8internal5Token8toStringENS1_4KindE(i32 noundef %6)
  %.not.i = icmp eq ptr %8, null
  br i1 %.not.i, label %9, label %17

9:                                                ; preds = %7
  %10 = load ptr, ptr %0, align 8, !tbaa !15
  %11 = getelementptr i8, ptr %10, i64 -24
  %12 = load i64, ptr %11, align 8
  %13 = getelementptr inbounds i8, ptr %0, i64 %12
  %14 = getelementptr inbounds nuw i8, ptr %13, i64 32
  %15 = load i32, ptr %14, align 8, !tbaa !211
  %16 = or i32 %15, 1
  tail call void @_ZNSt9basic_iosIcSt11char_traitsIcEE5clearESt12_Ios_Iostate(ptr noundef nonnull align 8 dereferenceable(264) %13, i32 noundef %16)
  br label %_ZStlsISt11char_traitsIcEERSt13basic_ostreamIcT_ES5_PKc.exit

17:                                               ; preds = %7
  %18 = tail call noundef i64 @strlen(ptr noundef nonnull dereferenceable(1) %8) #26
  %19 = tail call noundef nonnull align 8 dereferenceable(8) ptr @_ZSt16__ostream_insertIcSt11char_traitsIcEERSt13basic_ostreamIT_T0_ES6_PKS3_l(ptr noundef nonnull align 8 dereferenceable(8) %0, ptr noundef nonnull %8, i64 noundef %18)
  br label %_ZStlsISt11char_traitsIcEERSt13basic_ostreamIcT_ES5_PKc.exit

20:                                               ; preds = %2
  %21 = icmp eq i32 %6, 12
  br i1 %21, label %22, label %29

22:                                               ; preds = %20
  %23 = tail call noundef nonnull align 8 dereferenceable(8) ptr @_ZSt16__ostream_insertIcSt11char_traitsIcEERSt13basic_ostreamIT_T0_ES6_PKS3_l(ptr noundef nonnull align 8 dereferenceable(8) %0, ptr noundef nonnull @.str.109, i64 noundef 1)
  %24 = load ptr, ptr %3, align 8, !tbaa !45
  %25 = getelementptr inbounds nuw i8, ptr %1, i64 40
  %26 = load i64, ptr %25, align 8, !tbaa !39
  %27 = tail call noundef nonnull align 8 dereferenceable(8) ptr @_ZSt16__ostream_insertIcSt11char_traitsIcEERSt13basic_ostreamIT_T0_ES6_PKS3_l(ptr noundef nonnull align 8 dereferenceable(8) %0, ptr noundef %24, i64 noundef %26)
  %28 = tail call noundef nonnull align 8 dereferenceable(8) ptr @_ZSt16__ostream_insertIcSt11char_traitsIcEERSt13basic_ostreamIT_T0_ES6_PKS3_l(ptr noundef nonnull align 8 dereferenceable(8) %27, ptr noundef nonnull @.str.109, i64 noundef 1)
  br label %_ZStlsISt11char_traitsIcEERSt13basic_ostreamIcT_ES5_PKc.exit

29:                                               ; preds = %20
  %30 = tail call noundef nonnull align 8 dereferenceable(8) ptr @_ZSt16__ostream_insertIcSt11char_traitsIcEERSt13basic_ostreamIT_T0_ES6_PKS3_l(ptr noundef nonnull align 8 dereferenceable(8) %0, ptr noundef nonnull @.str.110, i64 noundef 1)
  %31 = load i32, ptr %1, align 8, !tbaa !69
  %32 = tail call noundef ptr @_ZN7jsonnet8internal5Token8toStringENS1_4KindE(i32 noundef %31)
  %.not.i10 = icmp eq ptr %32, null
  br i1 %.not.i10, label %33, label %41

33:                                               ; preds = %29
  %34 = load ptr, ptr %0, align 8, !tbaa !15
  %35 = getelementptr i8, ptr %34, i64 -24
  %36 = load i64, ptr %35, align 8
  %37 = getelementptr inbounds i8, ptr %0, i64 %36
  %38 = getelementptr inbounds nuw i8, ptr %37, i64 32
  %39 = load i32, ptr %38, align 8, !tbaa !211
  %40 = or i32 %39, 1
  tail call void @_ZNSt9basic_iosIcSt11char_traitsIcEE5clearESt12_Ios_Iostate(ptr noundef nonnull align 8 dereferenceable(264) %37, i32 noundef %40)
  br label %_ZStlsISt11char_traitsIcEERSt13basic_ostreamIcT_ES5_PKc.exit11

41:                                               ; preds = %29
  %42 = tail call noundef i64 @strlen(ptr noundef nonnull dereferenceable(1) %32) #26
  %43 = tail call noundef nonnull align 8 dereferenceable(8) ptr @_ZSt16__ostream_insertIcSt11char_traitsIcEERSt13basic_ostreamIT_T0_ES6_PKS3_l(ptr noundef nonnull align 8 dereferenceable(8) %0, ptr noundef nonnull %32, i64 noundef %42)
  br label %_ZStlsISt11char_traitsIcEERSt13basic_ostreamIcT_ES5_PKc.exit11

_ZStlsISt11char_traitsIcEERSt13basic_ostreamIcT_ES5_PKc.exit11: ; preds = %33, %41
  %44 = tail call noundef nonnull align 8 dereferenceable(8) ptr @_ZSt16__ostream_insertIcSt11char_traitsIcEERSt13basic_ostreamIT_T0_ES6_PKS3_l(ptr noundef nonnull align 8 dereferenceable(8) %0, ptr noundef nonnull @.str.111, i64 noundef 3)
  %45 = load ptr, ptr %3, align 8, !tbaa !45
  %46 = getelementptr inbounds nuw i8, ptr %1, i64 40
  %47 = load i64, ptr %46, align 8, !tbaa !39
  %48 = tail call noundef nonnull align 8 dereferenceable(8) ptr @_ZSt16__ostream_insertIcSt11char_traitsIcEERSt13basic_ostreamIT_T0_ES6_PKS3_l(ptr noundef nonnull align 8 dereferenceable(8) %0, ptr noundef %45, i64 noundef %47)
  %49 = tail call noundef nonnull align 8 dereferenceable(8) ptr @_ZSt16__ostream_insertIcSt11char_traitsIcEERSt13basic_ostreamIT_T0_ES6_PKS3_l(ptr noundef nonnull align 8 dereferenceable(8) %48, ptr noundef nonnull @.str.112, i64 noundef 2)
  br label %_ZStlsISt11char_traitsIcEERSt13basic_ostreamIcT_ES5_PKc.exit

_ZStlsISt11char_traitsIcEERSt13basic_ostreamIcT_ES5_PKc.exit: ; preds = %17, %9, %22, %_ZStlsISt11char_traitsIcEERSt13basic_ostreamIcT_ES5_PKc.exit11
  ret ptr %0
}